target datalayout = "e-m:e-p270:32:32-p271:32:32-p272:64:64-i64:64-i128:128-f80:128-n8:16:32:64-S128"
target triple = "x86_64-pc-linux-gnu"

%struct.AVCodecContext = type { ptr, i32, i32, ptr, i32, i32, ptr, ptr, ptr, i64, i32, i32, ptr, i32, %struct.AVRational, %struct.AVRational, %struct.AVRational, i32, i32, i32, i32, i32, %struct.AVRational, i32, i32, i32, i32, i32, i32, i32, i32, i32, i32, i32, ptr, ptr, i32, float, float, float, float, float, float, float, float, float, i32, i32, i32, i32, i32, i32, i32, i32, i32, i32, i32, i32, ptr, ptr, ptr, i32, i32, i32, i32, i32, i32, i32, i32, i32, i32, %struct.AVChannelLayout, i32, i32, i32, i32, i32, i32, i32, i32, ptr, i32, i32, i32, float, float, i32, i32, i32, i32, i32, ptr, i64, i64, float, float, i32, i32, ptr, ptr, i32, i32, i32, i32, i32, ptr, ptr, ptr, ptr, i32, i32, [8 x i64], i32, i32, i32, i32, i32, i32, i32, ptr, ptr, i32, i32, i32, i32, i32, i32, i32, i32, i32, i32, ptr, ptr, i32, i32, ptr, ptr, ptr, ptr, i32, i32, i64, i32, i32, i64, ptr, i64, ptr, i32, ptr, i32 }
%struct.AVRational = type { i32, i32 }
%struct.AVChannelLayout = type { i32, i32, %union.anon.1, ptr }
%union.anon.1 = type { i64 }
%struct.VAAPIEncodeContext = type { %struct.FFHWBaseEncodeContext, ptr, i32, i32, i32, i32, i32, i32, ptr, ptr, i32, i32, i32, i32, i32, i32, [4 x %struct._VAConfigAttrib], i32, i32, i32, ptr, ptr, [4 x i32], [4 x ptr], [4 x i64], i32, %struct._VAEncMiscParameterRateControl, %struct._VAEncMiscParameterHRD, %struct._VAEncMiscParameterFrameRate, %struct._VAEncMiscParameterBufferMaxFrameSize, %struct._VAEncMiscParameterBufferQualityLevel, ptr, ptr, i32, i32, i32, i32, i32, i32, [20 x i32], [22 x i32], [21 x i32], [23 x i32], i32, i32, ptr, i32, i32 }
%struct.FFHWBaseEncodeContext = type { ptr, ptr, ptr, i32, i32, i32, i32, i32, i32, ptr, ptr, ptr, ptr, ptr, ptr, ptr, ptr, [2 x ptr], i32, i64, i64, i64, i64, i64, i64, i64, [112 x i64], i32, i32, i32, i32, i32, i32, i32, i32, i32, i32, i32, i32, i32, i32, i32, i32, ptr, i32, ptr, i32, ptr }
%struct._VAConfigAttrib = type { i32, i32 }
%struct._VAEncMiscParameterRateControl = type { i32, i32, i32, i32, i32, i32, %union.anon.2, i32, i32, i32, i32, [4 x i32] }
%union.anon.2 = type { %struct.anon }
%struct.anon = type { i32 }
%struct._VAEncMiscParameterHRD = type { i32, i32, [4 x i32] }
%struct._VAEncMiscParameterFrameRate = type { i32, %union.anon.3, [4 x i32] }
%union.anon.3 = type { %struct.anon.4 }
%struct.anon.4 = type { i32 }
%struct._VAEncMiscParameterBufferMaxFrameSize = type { i32, i32, [4 x i32] }
%struct._VAEncMiscParameterBufferQualityLevel = type { i32, [4 x i32] }
%struct.VAAPIEncodeMPEG2Context = type { %struct.VAAPIEncodeContext, i32, i32, i32, i32, i32, i32, i32, %struct.AVRational, i32, i32, i64, %struct.MPEG2RawSequenceHeader, %struct.MPEG2RawExtensionData, %struct.MPEG2RawExtensionData, %struct.MPEG2RawGroupOfPicturesHeader, %struct.MPEG2RawPictureHeader, %struct.MPEG2RawExtensionData, ptr, %struct.CodedBitstreamFragment }
%struct.MPEG2RawSequenceHeader = type { i8, i16, i16, i8, i8, i32, i16, i8, i8, [64 x i8], i8, [64 x i8] }
%struct.MPEG2RawGroupOfPicturesHeader = type { i8, i32, i8, i8 }
%struct.MPEG2RawPictureHeader = type { i8, i16, i8, i16, i8, i8, i8, i8, %struct.MPEG2RawExtraInformation }
%struct.MPEG2RawExtraInformation = type { ptr, ptr, i64 }
%struct.MPEG2RawExtensionData = type { i8, i8, %union.anon.5 }
%union.anon.5 = type { %struct.MPEG2RawSequenceExtension, [248 x i8] }
%struct.MPEG2RawSequenceExtension = type { i8, i8, i8, i8, i8, i16, i8, i8, i8, i8 }
%struct.CodedBitstreamFragment = type { ptr, i64, i64, ptr, i32, i32, ptr }
%struct.FFHWBaseEncodePicture = type { ptr, ptr, ptr, i64, i64, i64, i64, i32, ptr, ptr, i32, i32, i32, i32, ptr, ptr, i32, i32, [16 x ptr], [2 x i32], [2 x [2 x ptr]], ptr, [2 x i32], [2 x i32] }
%struct.VAAPIEncodeSlice = type { i32, i32, i32, i32, i32, ptr }
%struct._VAEncSliceParameterBufferMPEG2 = type { i32, i32, i32, i32, [4 x i32] }

@.str.61 = private unnamed_addr constant [30 x i8] c"Assertion %s failed at %s:%d\0A\00", align 1
@.str.62 = private unnamed_addr constant [28 x i8] c"0 && \22invalid picture type\22\00", align 1
@.str.63 = private unnamed_addr constant [32 x i8] c"libavcodec/vaapi_encode_mpeg2.c\00", align 1

; Function Attrs: nounwind uwtable
define internal i32 @vaapi_encode_mpeg2_init_slice_params(ptr noundef %0, ptr noundef %1, ptr noundef %2) #3 {
  %4 = alloca ptr, align 8
  %5 = alloca ptr, align 8
  %6 = alloca ptr, align 8
  %7 = alloca ptr, align 8
  %8 = alloca ptr, align 8
  %9 = alloca i32, align 4
  store ptr %0, ptr %4, align 8, !tbaa !4
  store ptr %1, ptr %5, align 8, !tbaa !208
  store ptr %2, ptr %6, align 8, !tbaa !224
  call void @llvm.lifetime.start.p0(i64 8, ptr %7) #12
  %10 = load ptr, ptr %4, align 8, !tbaa !4
  %11 = getelementptr inbounds nuw %struct.AVCodecContext, ptr %10, i32 0, i32 6
  %12 = load ptr, ptr %11, align 8, !tbaa !9
  store ptr %12, ptr %7, align 8, !tbaa !31
  call void @llvm.lifetime.start.p0(i64 8, ptr %8) #12
  %13 = load ptr, ptr %6, align 8, !tbaa !224
  %14 = getelementptr inbounds nuw %struct.VAAPIEncodeSlice, ptr %13, i32 0, i32 5
  %15 = load ptr, ptr %14, align 8, !tbaa !225
  store ptr %15, ptr %8, align 8, !tbaa !227
  call void @llvm.lifetime.start.p0(i64 4, ptr %9) #12
  %16 = load ptr, ptr %6, align 8, !tbaa !224
  %17 = getelementptr inbounds nuw %struct.VAAPIEncodeSlice, ptr %16, i32 0, i32 3
  %18 = load i32, ptr %17, align 4, !tbaa !229
  %19 = load ptr, ptr %8, align 8, !tbaa !227
  %20 = getelementptr inbounds nuw %struct._VAEncSliceParameterBufferMPEG2, ptr %19, i32 0, i32 0
  store i32 %18, ptr %20, align 4, !tbaa !230
  %21 = load ptr, ptr %6, align 8, !tbaa !224
  %22 = getelementptr inbounds nuw %struct.VAAPIEncodeSlice, ptr %21, i32 0, i32 4
  %23 = load i32, ptr %22, align 8, !tbaa !232
  %24 = load ptr, ptr %8, align 8, !tbaa !227
  %25 = getelementptr inbounds nuw %struct._VAEncSliceParameterBufferMPEG2, ptr %24, i32 0, i32 1
  store i32 %23, ptr %25, align 4, !tbaa !233
  %26 = load ptr, ptr %5, align 8, !tbaa !208
  %27 = getelementptr inbounds nuw %struct.FFHWBaseEncodePicture, ptr %26, i32 0, i32 10
  %28 = load i32, ptr %27, align 8, !tbaa !217
  switch i32 %28, label %41 [
    i32 0, label %29
    i32 1, label %29
    i32 2, label %33
    i32 3, label %37
  ]

29:                                               ; preds = %3, %3
  %30 = load ptr, ptr %7, align 8, !tbaa !31
  %31 = getelementptr inbounds nuw %struct.VAAPIEncodeMPEG2Context, ptr %30, i32 0, i32 3
  %32 = load i32, ptr %31, align 8, !tbaa !76
  store i32 %32, ptr %9, align 4, !tbaa !70
  br label %45

33:                                               ; preds = %3
  %34 = load ptr, ptr %7, align 8, !tbaa !31
  %35 = getelementptr inbounds nuw %struct.VAAPIEncodeMPEG2Context, ptr %34, i32 0, i32 4
  %36 = load i32, ptr %35, align 4, !tbaa !73
  store i32 %36, ptr %9, align 4, !tbaa !70
  br label %45

37:                                               ; preds = %3
  %38 = load ptr, ptr %7, align 8, !tbaa !31
  %39 = getelementptr inbounds nuw %struct.VAAPIEncodeMPEG2Context, ptr %38, i32 0, i32 5
  %40 = load i32, ptr %39, align 8, !tbaa !79
  store i32 %40, ptr %9, align 4, !tbaa !70
  br label %45

41:                                               ; preds = %3
  br label %42

42:                                               ; preds = %41
  call void (ptr, i32, ptr, ...) @av_log(ptr noundef null, i32 noundef 0, ptr noundef @.str.61, ptr noundef @.str.62, ptr noundef @.str.63, i32 noundef 506)
  call void @abort() #14
  unreachable

43:                                               ; No predecessors!
  br label %44

44:                                               ; preds = %43
  br label %45

45:                                               ; preds = %44, %37, %33, %29
  %46 = load i32, ptr %9, align 4, !tbaa !70
  %47 = load ptr, ptr %8, align 8, !tbaa !227
  %48 = getelementptr inbounds nuw %struct._VAEncSliceParameterBufferMPEG2, ptr %47, i32 0, i32 2
  store i32 %46, ptr %48, align 4, !tbaa !234
  %49 = load ptr, ptr %5, align 8, !tbaa !208
  %50 = getelementptr inbounds nuw %struct.FFHWBaseEncodePicture, ptr %49, i32 0, i32 10
  %51 = load i32, ptr %50, align 8, !tbaa !217
  %52 = icmp eq i32 %51, 0
  br i1 %52, label %58, label %53

53:                                               ; preds = %45
  %54 = load ptr, ptr %5, align 8, !tbaa !208
  %55 = getelementptr inbounds nuw %struct.FFHWBaseEncodePicture, ptr %54, i32 0, i32 10
  %56 = load i32, ptr %55, align 8, !tbaa !217
  %57 = icmp eq i32 %56, 1
  br label %58

58:                                               ; preds = %53, %45
  %59 = phi i1 [ true, %45 ], [ %57, %53 ]
  %60 = zext i1 %59 to i32
  %61 = load ptr, ptr %8, align 8, !tbaa !227
  %62 = getelementptr inbounds nuw %struct._VAEncSliceParameterBufferMPEG2, ptr %61, i32 0, i32 3
  store i32 %60, ptr %62, align 4, !tbaa !235
  call void @llvm.lifetime.end.p0(i64 4, ptr %9) #12
  call void @llvm.lifetime.end.p0(i64 8, ptr %8) #12
  call void @llvm.lifetime.end.p0(i64 8, ptr %7) #12
  ret i32 0
}