; Function Attrs: nounwind uwtable
define internal noundef i32 @vaapi_encode_mpeg2_init_slice_params(ptr noundef readonly captures(none) %0, ptr noundef readonly captures(none) %1, ptr noundef readonly captures(none) %2) #3 {
  %4 = getelementptr inbounds nuw i8, ptr %0, i64 32
  %5 = load ptr, ptr %4, align 8, !tbaa !4
  %6 = getelementptr inbounds nuw i8, ptr %2, i64 24
  %7 = load ptr, ptr %6, align 8, !tbaa !181
  %8 = getelementptr inbounds nuw i8, ptr %2, i64 12
  %9 = load i32, ptr %8, align 4, !tbaa !183
  store i32 %9, ptr %7, align 4, !tbaa !184
  %10 = getelementptr inbounds nuw i8, ptr %2, i64 16
  %11 = load i32, ptr %10, align 8, !tbaa !186
  %12 = getelementptr inbounds nuw i8, ptr %7, i64 4
  store i32 %11, ptr %12, align 4, !tbaa !187
  %13 = getelementptr inbounds nuw i8, ptr %1, i64 80
  %14 = load i32, ptr %13, align 8, !tbaa !166
  %15 = icmp ult i32 %14, 4
  br i1 %15, label %switch.lookup, label %16

16:                                               ; preds = %3
  tail call void (ptr, i32, ptr, ...) @av_log(ptr noundef null, i32 noundef 0, ptr noundef nonnull @.str.61, ptr noundef nonnull @.str.62, ptr noundef nonnull @.str.63, i32 noundef 506) #10
  tail call void @abort() #12
  unreachable

switch.lookup:                                    ; preds = %3
  %17 = zext nneg i32 %14 to i64
  %switch.gep = getelementptr inbounds nuw [4 x i64], ptr @switch.table.vaapi_encode_mpeg2_init_slice_params, i64 0, i64 %17
  %switch.load = load i64, ptr %switch.gep, align 8
  %18 = getelementptr inbounds nuw i8, ptr %5, i64 %switch.load
  %.0 = load i32, ptr %18, align 4, !tbaa !94
  %19 = getelementptr inbounds nuw i8, ptr %7, i64 8
  store i32 %.0, ptr %19, align 4, !tbaa !188
  %narrow = icmp samesign ult i32 %14, 2
  %20 = zext i1 %narrow to i32
  %21 = getelementptr inbounds nuw i8, ptr %7, i64 12
  store i32 %20, ptr %21, align 4, !tbaa !189
  ret i32 0
}